(dp0
Vmodel
p1
ccopy_reg
_reconstructor
p2
(comegaconf.dictconfig
DictConfig
p3
c__builtin__
object
p4
Ntp5
Rp6
(dp7
V_metadata
p8
g2
(comegaconf.base
ContainerMetadata
p9
g4
Ntp10
Rp11
(dp12
Vref_type
p13
ctyping
Any
p14
sVobject_type
p15
c__builtin__
dict
p16
sVoptional
p17
I01
sVkey
p18
Vmodel
p19
sVflags
p20
(dp21
sVflags_root
p22
I00
sVresolver_cache
p23
ccollections
defaultdict
p24
(g16
tp25
Rp26
sVkey_type
p27
g14
sVelement_type
p28
g14
sbsV_parent
p29
g2
(g3
g4
Ntp30
Rp31
(dp32
g8
g2
(g9
g4
Ntp33
Rp34
(dp35
g13
g14
sg15
g16
sg17
I01
sg18
Nsg20
(dp36
sg22
I00
sg23
g24
(g16
tp37
Rp38
sg27
g14
sg28
g14
sbsg29
NsV_content
p39
(dp40
Vname
p41
g2
(comegaconf.nodes
AnyNode
p42
g4
Ntp43
Rp44
(dp45
g8
g2
(comegaconf.base
Metadata
p46
g4
Ntp47
Rp48
(dp49
g13
g14
sg15
Nsg17
I01
sg18
g41
sg20
(dp50
sg22
I00
sg23
g24
(g16
tp51
Rp52
sbsg29
g31
sV_val
p53
Vmnist
p54
sbsg19
g6
ssbsg39
(dp55
Vhidden_layers
p56
g2
(g42
g4
Ntp57
Rp58
(dp59
g8
g2
(g46
g4
Ntp60
Rp61
(dp62
g13
g14
sg15
Nsg17
I01
sg18
g56
sg20
(dp63
sg22
I00
sg23
g24
(g16
tp64
Rp65
sbsg29
g6
sg53
I3
sbsVhidden_units
p66
g2
(g42
g4
Ntp67
Rp68
(dp69
g8
g2
(g46
g4
Ntp70
Rp71
(dp72
g13
g14
sg15
Nsg17
I01
sg18
g66
sg20
(dp73
sg22
I00
sg23
g24
(g16
tp74
Rp75
sbsg29
g6
sg53
I10
sbsVinput_shape
p76
g2
(comegaconf.listconfig
ListConfig
p77
g4
Ntp78
Rp79
(dp80
g8
g2
(g9
g4
Ntp81
Rp82
(dp83
g13
g14
sg15
c__builtin__
list
p84
sg17
I01
sg18
g76
sg20
(dp85
sg22
I00
sg23
g24
(g16
tp86
Rp87
sg27
c__builtin__
long
p88
sg28
g14
sbsg29
g6
sg39
(lp89
g2
(g42
g4
Ntp90
Rp91
(dp92
g8
g2
(g46
g4
Ntp93
Rp94
(dp95
g13
g14
sg15
Nsg17
I01
sg18
I0
sg20
(dp96
sg22
I00
sg23
g24
(g16
tp97
Rp98
sbsg29
g79
sg53
I28
sbag2
(g42
g4
Ntp99
Rp100
(dp101
g8
g2
(g46
g4
Ntp102
Rp103
(dp104
g13
g14
sg15
Nsg17
I01
sg18
I1
sg20
(dp105
sg22
I00
sg23
g24
(g16
tp106
Rp107
sbsg29
g79
sg53
I28
sbasbsVoutput_units
p108
g2
(g42
g4
Ntp109
Rp110
(dp111
g8
g2
(g46
g4
Ntp112
Rp113
(dp114
g13
g14
sg15
Nsg17
I01
sg18
g108
sg20
(dp115
sg22
I00
sg23
g24
(g16
tp116
Rp117
sbsg29
g6
sg53
I10
sbssbsVcompile
p118
(dp119
sVfit
p120
(dp121
s.