(dp0
Vmodel
p1
(dp2
Vinput_shape
p3
(I32
I32
I3
tp4
sVhidden_layers
p5
I5
sVhidden_units
p6
I10
sVoutput_units
p7
I100
sVevidence_regularizer_kwargs
p8
(dp9
Vthreshold
p10
I10
sVcutoff
p11
I0
sssVcompile
p12
(dp13
sVfit
p14
(dp15
Vepochs
p16
I100
ss.